; Function Attrs: nounwind sspstrong uwtable
define internal void @blkdebug_close(ptr noundef readonly captures(none) %bs) #0 {
entry:
  %opaque = getelementptr inbounds nuw i8, ptr %bs, i64 24
  %0 = load ptr, ptr %opaque, align 8
  %rules = getelementptr inbounds nuw i8, ptr %0, i64 80
  br label %for.body

for.body:                                         ; preds = %entry, %for.inc4
  %indvars.iv = phi i64 [ 0, %entry ], [ %indvars.iv.next, %for.inc4 ]
  %arrayidx = getelementptr [48 x %struct.anon.10], ptr %rules, i64 0, i64 %indvars.iv
  %1 = load ptr, ptr %arrayidx, align 8
  %tobool.not7 = icmp eq ptr %1, null
  br i1 %tobool.not7, label %for.inc4, label %land.rhs

land.rhs:                                         ; preds = %for.body, %remove_rule.exit
  %rule.08 = phi ptr [ %2, %remove_rule.exit ], [ %1, %for.body ]
  %next2 = getelementptr inbounds nuw i8, ptr %rule.08, i64 48
  %2 = load ptr, ptr %next2, align 8
  %action.i = getelementptr inbounds nuw i8, ptr %rule.08, i64 4
  %3 = load i32, ptr %action.i, align 4
  %cond.i = icmp eq i32 %3, 2
  br i1 %cond.i, label %sw.bb1.i, label %do.body.i

sw.bb1.i:                                         ; preds = %land.rhs
  %options.i = getelementptr inbounds nuw i8, ptr %rule.08, i64 16
  %4 = load ptr, ptr %options.i, align 8
  tail call void @g_free(ptr noundef %4) #13
  %.pr = load ptr, ptr %next2, align 8
  br label %do.body.i

do.body.i:                                        ; preds = %sw.bb1.i, %land.rhs
  %5 = phi ptr [ %.pr, %sw.bb1.i ], [ %2, %land.rhs ]
  %cmp.not.i = icmp eq ptr %5, null
  %le_prev10.phi.trans.insert.i = getelementptr inbounds nuw i8, ptr %rule.08, i64 56
  %.pre10.i = load ptr, ptr %le_prev10.phi.trans.insert.i, align 8
  br i1 %cmp.not.i, label %remove_rule.exit, label %if.then.i

if.then.i:                                        ; preds = %do.body.i
  %le_prev6.i = getelementptr inbounds nuw i8, ptr %5, i64 56
  store ptr %.pre10.i, ptr %le_prev6.i, align 8
  %.pre.i = load ptr, ptr %next2, align 8
  br label %remove_rule.exit

remove_rule.exit:                                 ; preds = %do.body.i, %if.then.i
  %6 = phi ptr [ %.pre.i, %if.then.i ], [ null, %do.body.i ]
  store ptr %6, ptr %.pre10.i, align 8
  tail call void @llvm.memset.p0.i64(ptr noundef nonnull align 8 dereferenceable(16) %next2, i8 0, i64 16, i1 false)
  tail call void @g_free(ptr noundef nonnull %rule.08) #13
  %tobool.not = icmp eq ptr %2, null
  br i1 %tobool.not, label %for.inc4, label %land.rhs, !llvm.loop !5

for.inc4:                                         ; preds = %remove_rule.exit, %for.body
  %indvars.iv.next = add nuw nsw i64 %indvars.iv, 1
  %exitcond.not = icmp eq i64 %indvars.iv.next, 48
  br i1 %exitcond.not, label %for.end5, label %for.body, !llvm.loop !7

for.end5:                                         ; preds = %for.inc4
  %config_file = getelementptr inbounds nuw i8, ptr %0, i64 48
  %7 = load ptr, ptr %config_file, align 8
  tail call void @g_free(ptr noundef %7) #13
  %lock = getelementptr inbounds nuw i8, ptr %0, i64 488
  tail call void @qemu_mutex_destroy(ptr noundef nonnull %lock) #13
  ret void
}